Certificate:
    Data:
        Version: 3 (0x2)
        Serial Number: 1 (0x1)
    Signature Algorithm: sha256WithRSAEncryption
        Issuer: C=CN, ST=CQ, L=CQ, O=CA, OU=technology, CN=CA
        Validity
            Not Before: Aug  4 02:19:33 2015 GMT
            Not After : Aug  3 02:19:33 2016 GMT
        Subject: C=CN, ST=CQ, L=CQ, O=cqpost, OU=technology, CN=newgendb/emailAddress=newgendb@163.com
        Subject Public Key Info:
            Public Key Algorithm: rsaEncryption
                Public-Key: (1024 bit)
                Modulus:
                    00:ca:74:a7:9b:43:93:8e:b8:8a:c1:cb:61:c7:3b:
                    0b:53:24:79:26:fd:05:15:0f:a2:e2:88:3e:51:3c:
                    ec:67:9a:7f:f4:97:18:fc:fe:4c:7c:d3:ea:bb:cd:
                    70:68:77:00:28:be:49:43:94:16:a5:cb:3a:33:8b:
                    5a:bb:50:5f:df:55:b6:46:5f:9f:61:65:e7:83:d4:
                    d8:62:53:0e:11:73:65:cf:de:2b:b3:48:0f:41:36:
                    49:8c:9c:5c:d5:6b:cb:6f:fe:2b:ec:fc:89:7d:02:
                    5c:b3:4b:5d:b9:57:a9:6d:54:59:a7:b0:dd:b7:e6:
                    da:7b:b0:80:52:04:15:37:f3
                Exponent: 65537 (0x10001)
        X509v3 extensions:
            X509v3 Basic Constraints: 
                CA:FALSE
            Netscape Comment: 
                OpenSSL Generated Certificate
            X509v3 Subject Key Identifier: 
                18:40:3C:39:13:25:23:CF:37:FA:94:38:91:24:5A:7D:DD:36:BE:BE
            X509v3 Authority Key Identifier: 
                keyid:C4:7A:25:8F:75:CD:73:C3:AB:B3:AF:96:E2:80:99:32:B7:9C:6F:C5

    Signature Algorithm: sha256WithRSAEncryption
         72:32:e6:db:23:54:6d:46:c7:05:ff:a3:2e:7f:46:77:1b:21:
         53:7f:d5:db:ba:7d:f4:74:3a:50:06:d2:21:2a:71:1e:07:70:
         22:21:ab:ac:64:c9:59:a1:36:41:18:87:8b:e8:15:13:78:f4:
         23:11:d6:be:d2:27:0d:09:fd:de:bd:72:40:3e:cb:63:b2:04:
         5d:49:76:30:f3:80:0c:b3:4a:25:d6:b0:38:28:f1:31:97:7d:
         ca:e0:d4:7e:4f:6c:d3:61:2b:92:c9:df:6c:44:ea:94:7d:51:
         ae:d6:96:4f:28:48:8c:39:5d:13:5b:7d:1d:bf:b2:ee:a7:11:
         2f:63:3f:83:a7:25:ce:72:4d:87:bc:d8:15:b2:15:b3:d8:33:
         5f:30:75:0f:c4:2a:cf:1b:0c:10:7f:d8:87:2b:9d:63:81:43:
         ed:bd:c0:08:1f:36:06:05:b2:04:b7:7d:d4:66:72:d7:75:e5:
         bc:27:02:79:bc:5d:c3:4a:04:fa:1b:a5:ab:bd:0f:e4:6c:8f:
         0d:cc:26:fb:7c:a8:75:5f:ee:1f:d2:2b:82:75:4a:3a:fa:28:
         7f:d5:05:81:0c:96:fd:1d:53:8e:00:31:41:48:d1:24:2b:a2:
         0e:50:34:88:ba:41:a2:dc:32:a2:cf:a0:ff:e5:d3:b7:00:0c:
         58:6f:20:4c
-----BEGIN CERTIFICATE-----
MIIDSjCCAjKgAwIBAgIBATANBgkqhkiG9w0BAQsFADBWMQswCQYDVQQGEwJDTjEL
MAkGA1UECAwCQ1ExCzAJBgNVBAcMAkNRMQswCQYDVQQKDAJDQTETMBEGA1UECwwK
dGVjaG5vbG9neTELMAkGA1UEAwwCQ0EwHhcNMTUwODA0MDIxOTMzWhcNMTYwODAz
MDIxOTMzWjCBgTELMAkGA1UEBhMCQ04xCzAJBgNVBAgMAkNRMQswCQYDVQQHDAJD
UTEPMA0GA1UECgwGY3Fwb3N0MRMwEQYDVQQLDAp0ZWNobm9sb2d5MREwDwYDVQQD
DAhuZXdnZW5kYjEfMB0GCSqGSIb3DQEJARYQbmV3Z2VuZGJAMTYzLmNvbTCBnzAN
BgkqhkiG9w0BAQEFAAOBjQAwgYkCgYEAynSnm0OTjriKwcthxzsLUyR5Jv0FFQ+i
4og+UTzsZ5p/9JcY/P5MfNPqu81waHcAKL5JQ5QWpcs6M4tau1Bf31W2Rl+fYWXn
g9TYYlMOEXNlz94rs0gPQTZJjJxc1WvLb/4r7PyJfQJcs0tduVepbVRZp7Ddt+ba
e7CAUgQVN/MCAwEAAaN7MHkwCQYDVR0TBAIwADAsBglghkgBhvhCAQ0EHxYdT3Bl
blNTTCBHZW5lcmF0ZWQgQ2VydGlmaWNhdGUwHQYDVR0OBBYEFBhAPDkTJSPPN/qU
OJEkWn3dNr6+MB8GA1UdIwQYMBaAFMR6JY91zXPDq7OvluKAmTK3nG/FMA0GCSqG
SIb3DQEBCwUAA4IBAQByMubbI1RtRscF/6Muf0Z3GyFTf9Xbun30dDpQBtIhKnEe
B3AiIausZMlZoTZBGIeL6BUTePQjEda+0icNCf3evXJAPstjsgRdSXYw84AMs0ol
1rA4KPExl33K4NR+T2zTYSuSyd9sROqUfVGu1pZPKEiMOV0TW30dv7LupxEvYz+D
pyXOck2HvNgVshWz2DNfMHUPxCrPGwwQf9iHK51jgUPtvcAIHzYGBbIEt33UZnLX
deW8JwJ5vF3DSgT6G6WrvQ/kbI8NzCb7fKh1X+4f0iuCdUo6+ih/1QWBDJb9HVOO
ADFBSNEkK6IOUDSIukGi3DKiz6D/5dO3AAxYbyBM
-----END CERTIFICATE-----
